target datalayout = "e-m:e-p270:32:32-p271:32:32-p272:64:64-i64:64-i128:128-f80:128-n8:16:32:64-S128"
target triple = "x86_64-pc-linux-gnu"

@.str = private unnamed_addr constant [16 x i8] c"need dictionary\00", align 1
@.str.1 = private unnamed_addr constant [11 x i8] c"stream end\00", align 1
@.str.2 = private unnamed_addr constant [1 x i8] zeroinitializer, align 1
@.str.3 = private unnamed_addr constant [11 x i8] c"file error\00", align 1
@.str.4 = private unnamed_addr constant [13 x i8] c"stream error\00", align 1
@.str.5 = private unnamed_addr constant [11 x i8] c"data error\00", align 1
@.str.6 = private unnamed_addr constant [20 x i8] c"insufficient memory\00", align 1
@.str.7 = private unnamed_addr constant [13 x i8] c"buffer error\00", align 1
@.str.8 = private unnamed_addr constant [21 x i8] c"incompatible version\00", align 1
@z_errmsg = constant [10 x ptr] [ptr @.str, ptr @.str.1, ptr @.str.2, ptr @.str.3, ptr @.str.4, ptr @.str.5, ptr @.str.6, ptr @.str.7, ptr @.str.8, ptr @.str.2], align 16
@.str.9 = private unnamed_addr constant [6 x i8] c"1.2.8\00", align 1

; Function Attrs: nounwind uwtable
define ptr @zlibVersion() #0 {
  ret ptr @.str.9
}

; Function Attrs: nounwind uwtable
define ptr @zError(i32 noundef %0) #0 {
  %2 = alloca i32, align 4
  store i32 %0, ptr %2, align 4
  %3 = load i32, ptr %2, align 4
  %4 = sub nsw i32 2, %3
  %5 = sext i32 %4 to i64
  %6 = getelementptr inbounds [10 x ptr], ptr @z_errmsg, i64 0, i64 %5
  %7 = load ptr, ptr %6, align 8
  ret ptr %7
}

; Function Attrs: nounwind uwtable
define ptr @zcalloc(ptr noundef %0, i32 noundef %1, i32 noundef %2) #0 {
  %4 = alloca ptr, align 8
  %5 = alloca i32, align 4
  %6 = alloca i32, align 4
  store ptr %0, ptr %4, align 8
  store i32 %1, ptr %5, align 4
  store i32 %2, ptr %6, align 4
  %7 = load ptr, ptr %4, align 8
  %8 = icmp ne ptr %7, null
  br i1 %8, label %9, label %15

9:                                                ; preds = %3
  %10 = load i32, ptr %6, align 4
  %11 = load i32, ptr %6, align 4
  %12 = sub i32 %10, %11
  %13 = load i32, ptr %5, align 4
  %14 = add i32 %13, %12
  store i32 %14, ptr %5, align 4
  br label %15

15:                                               ; preds = %9, %3
  %16 = load i32, ptr %5, align 4
  %17 = load i32, ptr %6, align 4
  %18 = mul i32 %16, %17
  %19 = zext i32 %18 to i64
  %20 = call noalias ptr @malloc(i64 noundef %19) #3
  ret ptr %20
}

; Function Attrs: nounwind allocsize(0)
declare noalias ptr @malloc(i64 noundef) #1

; Function Attrs: nounwind uwtable
define void @zcfree(ptr noundef %0, ptr noundef %1) #0 {
  %3 = alloca ptr, align 8
  %4 = alloca ptr, align 8
  store ptr %0, ptr %3, align 8
  store ptr %1, ptr %4, align 8
  %5 = load ptr, ptr %4, align 8
  call void @free(ptr noundef %5) #4
  %6 = load ptr, ptr %3, align 8
  %7 = icmp ne ptr %6, null
  br i1 %7, label %8, label %9

8:                                                ; preds = %2
  br label %9

9:                                                ; preds = %8, %2
  ret void
}

; Function Attrs: nounwind
declare void @free(ptr noundef) #2


!llvm.module.flags = !{!0, !1, !2, !3}

!0 = !{i32 1, !"wchar_size", i32 4}
!1 = !{i32 8, !"PIC Level", i32 2}
!2 = !{i32 7, !"uwtable", i32 2}
!3 = !{i32 7, !"frame-pointer", i32 2}
